(lp1
((lp2
F1
aF0.55000000000000004
aF0.70967741935483875
a(lp3
F0.95454545454545459
aF0.95454545454545459
aF0.95454545454545459
atp4
a((lp5
F1
aF0.51000000000000001
aF0.67549668874172186
a(lp6
F0.95454545454545459
aF0.95454545454545459
aF0.95454545454545459
atp7
a((lp8
F1
aF0.54000000000000004
aF0.70129870129870131
a(lp9
F1
aF1
aF1
atp10
a((lp11
F1
aF0.48999999999999999
aF0.65771812080536907
a(lp12
F0.95454545454545459
aF0.95454545454545459
aF0.95454545454545459
atp13
a((lp14
F1
aF0.51000000000000001
aF0.67549668874172186
a(lp15
F0.95454545454545459
aF0.95454545454545459
aF0.95454545454545459
atp16
a((lp17
F1
aF0.56000000000000005
aF0.71794871794871795
a(lp18
F0.95454545454545459
aF0.95454545454545459
aF0.95454545454545459
atp19
a((lp20
F1
aF0.42999999999999999
aF0.60139860139860146
a(lp21
F0.95454545454545459
aF0.95454545454545459
aF0.95454545454545459
atp22
a((lp23
F1
aF0.56000000000000005
aF0.71794871794871795
a(lp24
F0.95454545454545459
aF0.95454545454545459
aF0.95454545454545459
atp25
a((lp26
F1
aF0.51000000000000001
aF0.67549668874172186
a(lp27
F0.95454545454545459
aF0.95454545454545459
aF0.95454545454545459
atp28
a((lp29
F1
aF0.54000000000000004
aF0.70129870129870131
a(lp30
F0.95454545454545459
aF0.95454545454545459
aF0.95454545454545459
atp31
a((lp32
F1
aF0.56000000000000005
aF0.71794871794871795
a(lp33
F0.95454545454545459
aF0.95454545454545459
aF0.95454545454545459
atp34
a((lp35
F1
aF0.38
aF0.55072463768115942
a(lp36
F0.95454545454545459
aF0.95454545454545459
aF0.95454545454545459
atp37
a((lp38
F1
aF0.47999999999999998
aF0.64864864864864868
a(lp39
F0.95454545454545459
aF0.95454545454545459
aF0.95454545454545459
atp40
a((lp41
F1
aF0.46000000000000002
aF0.63013698630136994
a(lp42
F1
aF1
aF1
atp43
a((lp44
F1
aF0.48999999999999999
aF0.65771812080536907
a(lp45
F0.95454545454545459
aF0.95454545454545459
aF0.95454545454545459
atp46
a((lp47
F1
aF0.46000000000000002
aF0.63013698630136994
a(lp48
F0.95454545454545459
aF0.95454545454545459
aF0.95454545454545459
atp49
a((lp50
F1
aF0.52000000000000002
aF0.68421052631578949
a(lp51
F0.95454545454545459
aF0.95454545454545459
aF0.95454545454545459
atp52
a((lp53
F1
aF0.56999999999999995
aF0.72611464968152872
a(lp54
F0.95454545454545459
aF0.95454545454545459
aF0.95454545454545459
atp55
a((lp56
F1
aF0.40999999999999998
aF0.58156028368794321
a(lp57
F0.95454545454545459
aF0.95454545454545459
aF0.95454545454545459
atp58
a((lp59
F1
aF0.56999999999999995
aF0.72611464968152872
a(lp60
F0.95454545454545459
aF0.95454545454545459
aF0.95454545454545459
atp61
a((lp62
F1
aF0.39000000000000001
aF0.5611510791366906
a(lp63
F0.95454545454545459
aF0.95454545454545459
aF0.95454545454545459
atp64
a((lp65
F1
aF0.51000000000000001
aF0.67549668874172186
a(lp66
F0.95454545454545459
aF0.95454545454545459
aF0.95454545454545459
atp67
a((lp68
F1
aF0.46000000000000002
aF0.63013698630136994
a(lp69
F0.95454545454545459
aF0.95454545454545459
aF0.95454545454545459
atp70
a((lp71
F1
aF0.42999999999999999
aF0.60139860139860146
a(lp72
F0.95454545454545459
aF0.95454545454545459
aF0.95454545454545459
atp73
a((lp74
F1
aF0.55000000000000004
aF0.70967741935483875
a(lp75
F0.95454545454545459
aF0.95454545454545459
aF0.95454545454545459
atp76
a((lp77
F1
aF0.51000000000000001
aF0.67549668874172186
a(lp78
F0.95454545454545459
aF0.95454545454545459
aF0.95454545454545459
atp79
a((lp80
F1
aF0.46999999999999997
aF0.6394557823129251
a(lp81
F0.95454545454545459
aF0.95454545454545459
aF0.95454545454545459
atp82
a((lp83
F1
aF0.56000000000000005
aF0.71794871794871795
a(lp84
F0.95454545454545459
aF0.95454545454545459
aF0.95454545454545459
atp85
a((lp86
F1
aF0.38
aF0.55072463768115942
a(lp87
F0.95454545454545459
aF0.95454545454545459
aF0.95454545454545459
atp88
a((lp89
F1
aF0.47999999999999998
aF0.64864864864864868
a(lp90
F0.95454545454545459
aF0.95454545454545459
aF0.95454545454545459
atp91
a((lp92
F1
aF0.57999999999999996
aF0.73417721518987333
a(lp93
F0.95454545454545459
aF0.95454545454545459
aF0.95454545454545459
atp94
a((lp95
F1
aF0.46000000000000002
aF0.63013698630136994
a(lp96
F0.95454545454545459
aF0.95454545454545459
aF0.95454545454545459
atp97
a((lp98
F1
aF0.41999999999999998
aF0.59154929577464788
a(lp99
F0.95454545454545459
aF0.95454545454545459
aF0.95454545454545459
atp100
a((lp101
F1
aF0.54000000000000004
aF0.70129870129870131
a(lp102
F0.95454545454545459
aF0.95454545454545459
aF0.95454545454545459
atp103
a((lp104
F1
aF0.56999999999999995
aF0.72611464968152872
a(lp105
F0.95454545454545459
aF0.95454545454545459
aF0.95454545454545459
atp106
a((lp107
F1
aF0.42999999999999999
aF0.60139860139860146
a(lp108
F0.95454545454545459
aF0.95454545454545459
aF0.95454545454545459
atp109
a((lp110
F1
aF0.55000000000000004
aF0.70967741935483875
a(lp111
F0.95454545454545459
aF0.95454545454545459
aF0.95454545454545459
atp112
a((lp113
F1
aF0.46999999999999997
aF0.6394557823129251
a(lp114
F0.95454545454545459
aF0.95454545454545459
aF0.95454545454545459
atp115
a((lp116
F1
aF0.52000000000000002
aF0.68421052631578949
a(lp117
F0.95454545454545459
aF0.95454545454545459
aF0.95454545454545459
atp118
a((lp119
F1
aF0.55000000000000004
aF0.70967741935483875
a(lp120
F0.95454545454545459
aF0.95454545454545459
aF0.95454545454545459
atp121
a((lp122
F1
aF0.52000000000000002
aF0.68421052631578949
a(lp123
F0.95454545454545459
aF0.95454545454545459
aF0.95454545454545459
atp124
a((lp125
F1
aF0.46999999999999997
aF0.6394557823129251
a(lp126
F0.95454545454545459
aF0.95454545454545459
aF0.95454545454545459
atp127
a((lp128
F1
aF0.45000000000000001
aF0.62068965517241381
a(lp129
F0.95454545454545459
aF0.95454545454545459
aF0.95454545454545459
atp130
a((lp131
F1
aF0.46999999999999997
aF0.6394557823129251
a(lp132
F0.90909090909090906
aF0.90909090909090906
aF0.90909090909090906
atp133
a((lp134
F1
aF0.59999999999999998
aF0.74999999999999989
a(lp135
F0.95454545454545459
aF0.95454545454545459
aF0.95454545454545459
atp136
a((lp137
F1
aF0.48999999999999999
aF0.65771812080536907
a(lp138
F0.95454545454545459
aF0.95454545454545459
aF0.95454545454545459
atp139
a((lp140
F1
aF0.48999999999999999
aF0.65771812080536907
a(lp141
F0.95454545454545459
aF0.95454545454545459
aF0.95454545454545459
atp142
a((lp143
F1
aF0.44
aF0.61111111111111116
a(lp144
F0.95454545454545459
aF0.95454545454545459
aF0.95454545454545459
atp145
a((lp146
F1
aF0.46999999999999997
aF0.6394557823129251
a(lp147
F0.95454545454545459
aF0.95454545454545459
aF0.95454545454545459
atp148
a((lp149
F1
aF0.28999999999999998
aF0.44961240310077516
a(lp150
F0.95454545454545459
aF0.95454545454545459
aF0.95454545454545459
atp151
a((lp152
F1
aF0.53000000000000003
aF0.69281045751633985
a(lp153
F0.95454545454545459
aF0.95454545454545459
aF0.95454545454545459
atp154
a((lp155
F0.98412698412698407
aF0.62
aF0.76073619631901834
a(lp156
F0.95454545454545459
aF0.95454545454545459
aF0.95454545454545459
atp157
a((lp158
F1
aF0.29999999999999999
aF0.46153846153846151
a(lp159
F1
aF1
aF1
atp160
a((lp161
F1
aF0.33000000000000002
aF0.49624060150375937
a(lp162
F1
aF1
aF1
atp163
a((lp164
F1
aF0.34999999999999998
aF0.51851851851851849
a(lp165
F1
aF1
aF1
atp166
a((lp167
F1
aF0.40000000000000002
aF0.57142857142857151
a(lp168
F1
aF1
aF1
atp169
a((lp170
F1
aF0.27000000000000002
aF0.42519685039370081
a(lp171
F0.80000000000000004
aF0.80000000000000004
aF0.80000000000000016
atp172
a((lp173
F1
aF0.34999999999999998
aF0.51851851851851849
a(lp174
F1
aF1
aF1
atp175
a((lp176
F1
aF0.25
aF0.40000000000000002
a(lp177
F1
aF1
aF1
atp178
a((lp179
F1
aF0.38
aF0.55072463768115942
a(lp180
F1
aF1
aF1
atp181
a((lp182
F1
aF0.31
aF0.47328244274809156
a(lp183
F1
aF1
aF1
atp184
a((lp185
F1
aF0.31
aF0.47328244274809156
a(lp186
F1
aF1
aF1
atp187
a((lp188
F1
aF0.35999999999999999
aF0.52941176470588236
a(lp189
F1
aF1
aF1
atp190
a((lp191
F1
aF0.32000000000000001
aF0.48484848484848486
a(lp192
F1
aF1
aF1
atp193
a((lp194
F1
aF0.32000000000000001
aF0.48484848484848486
a(lp195
F1
aF1
aF1
atp196
a((lp197
F1
aF0.28999999999999998
aF0.44961240310077516
a(lp198
F1
aF1
aF1
atp199
a((lp200
F1
aF0.34999999999999998
aF0.51851851851851849
a(lp201
F1
aF1
aF1
atp202
a((lp203
F1
aF0.31
aF0.47328244274809156
a(lp204
F1
aF1
aF1
atp205
a((lp206
F1
aF0.33000000000000002
aF0.49624060150375937
a(lp207
F1
aF1
aF1
atp208
a((lp209
F1
aF0.34000000000000002
aF0.5074626865671642
a(lp210
F1
aF1
aF1
atp211
a((lp212
F1
aF0.48999999999999999
aF0.65771812080536907
a(lp213
F1
aF1
aF1
atp214
a((lp215
F1
aF0.38
aF0.55072463768115942
a(lp216
F1
aF1
aF1
atp217
a((lp218
F1
aF0.32000000000000001
aF0.48484848484848486
a(lp219
F1
aF1
aF1
atp220
a((lp221
F1
aF0.38
aF0.55072463768115942
a(lp222
F1
aF1
aF1
atp223
a((lp224
F1
aF0.26000000000000001
aF0.41269841269841273
a(lp225
F1
aF1
aF1
atp226
a((lp227
F1
aF0.23999999999999999
aF0.38709677419354838
a(lp228
F1
aF1
aF1
atp229
a((lp230
F1
aF0.38
aF0.55072463768115942
a(lp231
F1
aF1
aF1
atp232
a((lp233
F1
aF0.33000000000000002
aF0.49624060150375937
a(lp234
F1
aF1
aF1
atp235
a((lp236
F1
aF0.35999999999999999
aF0.52941176470588236
a(lp237
F1
aF1
aF1
atp238
a((lp239
F1
aF0.28999999999999998
aF0.44961240310077516
a(lp240
F1
aF1
aF1
atp241
a((lp242
F1
aF0.28000000000000003
aF0.43750000000000006
a(lp243
F1
aF1
aF1
atp244
a((lp245
F1
aF0.38
aF0.55072463768115942
a(lp246
F1
aF1
aF1
atp247
a((lp248
F1
aF0.37
aF0.54014598540145986
a(lp249
F1
aF1
aF1
atp250
a((lp251
F1
aF0.38
aF0.55072463768115942
a(lp252
F1
aF1
aF1
atp253
a((lp254
F1
aF0.28999999999999998
aF0.44961240310077516
a(lp255
F1
aF1
aF1
atp256
a((lp257
F1
aF0.33000000000000002
aF0.49624060150375937
a(lp258
F1
aF1
aF1
atp259
a((lp260
F1
aF0.34999999999999998
aF0.51851851851851849
a(lp261
F1
aF1
aF1
atp262
a((lp263
F1
aF0.37
aF0.54014598540145986
a(lp264
F1
aF1
aF1
atp265
a((lp266
F1
aF0.28999999999999998
aF0.44961240310077516
a(lp267
F1
aF1
aF1
atp268
a((lp269
F1
aF0.28999999999999998
aF0.44961240310077516
a(lp270
F1
aF1
aF1
atp271
a((lp272
F1
aF0.27000000000000002
aF0.42519685039370081
a(lp273
F1
aF1
aF1
atp274
a((lp275
F1
aF0.23999999999999999
aF0.38709677419354838
a(lp276
F1
aF1
aF1
atp277
a((lp278
F1
aF0.39000000000000001
aF0.5611510791366906
a(lp279
F1
aF1
aF1
atp280
a((lp281
F1
aF0.38
aF0.55072463768115942
a(lp282
F1
aF1
aF1
atp283
a((lp284
F1
aF0.33000000000000002
aF0.49624060150375937
a(lp285
F1
aF1
aF1
atp286
a((lp287
F1
aF0.34000000000000002
aF0.5074626865671642
a(lp288
F1
aF1
aF1
atp289
a((lp290
F1
aF0.34999999999999998
aF0.51851851851851849
a(lp291
F1
aF1
aF1
atp292
a((lp293
F1
aF0.25
aF0.40000000000000002
a(lp294
F1
aF1
aF1
atp295
a((lp296
F1
aF0.34000000000000002
aF0.5074626865671642
a(lp297
F1
aF1
aF1
atp298
a((lp299
F1
aF0.34000000000000002
aF0.5074626865671642
a(lp300
F1
aF1
aF1
atp301
a((lp302
F1
aF0.33000000000000002
aF0.49624060150375937
a(lp303
F1
aF1
aF1
atp304
a((lp305
F1
aF0.34999999999999998
aF0.51851851851851849
a(lp306
F1
aF1
aF1
atp307
a((lp308
F1
aF0.34999999999999998
aF0.51851851851851849
a(lp309
F1
aF1
aF1
atp310
a((lp311
F1
aF0.33000000000000002
aF0.49624060150375937
a(lp312
F1
aF1
aF1
atp313
a.